target datalayout = "e-m:e-p270:32:32-p271:32:32-p272:64:64-i64:64-i128:128-f80:128-n8:16:32:64-S128"
target triple = "x86_64-pc-linux-gnu"

%struct.errorInfo = type { ptr, ptr, ptr, i32 }

@.str.8 = private unnamed_addr constant [4 x i8] c"err\00", align 1
@.str.36 = private unnamed_addr constant [7 x i8] c"ERR %s\00", align 1
@.str.37 = private unnamed_addr constant [7 x i8] c"source\00", align 1
@.str.38 = private unnamed_addr constant [5 x i8] c"line\00", align 1
@.str.39 = private unnamed_addr constant [26 x i8] c"ignore_error_stats_update\00", align 1

; Function Attrs: nounwind uwtable
define dso_local void @luaExtractErrorInformation(ptr noundef %0, ptr noundef %1) #0 {
  %3 = alloca ptr, align 8
  %4 = alloca ptr, align 8
  store ptr %0, ptr %3, align 8, !tbaa !5
  store ptr %1, ptr %4, align 8, !tbaa !79
  %5 = load ptr, ptr %3, align 8, !tbaa !5
  %6 = call i32 @lua_isstring(ptr noundef %5, i32 noundef -1)
  %7 = icmp ne i32 %6, 0
  br i1 %7, label %8, label %21

8:                                                ; preds = %2
  %9 = call ptr @sdsempty()
  %10 = load ptr, ptr %3, align 8, !tbaa !5
  %11 = call ptr @lua_tolstring(ptr noundef %10, i32 noundef -1, ptr noundef null)
  %12 = call ptr (ptr, ptr, ...) @sdscatfmt(ptr noundef %9, ptr noundef @.str.36, ptr noundef %11)
  %13 = load ptr, ptr %4, align 8, !tbaa !79
  %14 = getelementptr inbounds nuw %struct.errorInfo, ptr %13, i32 0, i32 0
  store ptr %12, ptr %14, align 8, !tbaa !81
  %15 = load ptr, ptr %4, align 8, !tbaa !79
  %16 = getelementptr inbounds nuw %struct.errorInfo, ptr %15, i32 0, i32 2
  store ptr null, ptr %16, align 8, !tbaa !84
  %17 = load ptr, ptr %4, align 8, !tbaa !79
  %18 = getelementptr inbounds nuw %struct.errorInfo, ptr %17, i32 0, i32 1
  store ptr null, ptr %18, align 8, !tbaa !83
  %19 = load ptr, ptr %4, align 8, !tbaa !79
  %20 = getelementptr inbounds nuw %struct.errorInfo, ptr %19, i32 0, i32 3
  store i32 0, ptr %20, align 8, !tbaa !85
  br label %69

21:                                               ; preds = %2
  %22 = load ptr, ptr %3, align 8, !tbaa !5
  call void @lua_getfield(ptr noundef %22, i32 noundef -1, ptr noundef @.str.8)
  %23 = load ptr, ptr %3, align 8, !tbaa !5
  %24 = call i32 @lua_isstring(ptr noundef %23, i32 noundef -1)
  %25 = icmp ne i32 %24, 0
  br i1 %25, label %26, label %32

26:                                               ; preds = %21
  %27 = load ptr, ptr %3, align 8, !tbaa !5
  %28 = call ptr @lua_tolstring(ptr noundef %27, i32 noundef -1, ptr noundef null)
  %29 = call ptr @sdsnew(ptr noundef %28)
  %30 = load ptr, ptr %4, align 8, !tbaa !79
  %31 = getelementptr inbounds nuw %struct.errorInfo, ptr %30, i32 0, i32 0
  store ptr %29, ptr %31, align 8, !tbaa !81
  br label %32

32:                                               ; preds = %26, %21
  %33 = load ptr, ptr %3, align 8, !tbaa !5
  call void @lua_settop(ptr noundef %33, i32 noundef -2)
  %34 = load ptr, ptr %3, align 8, !tbaa !5
  call void @lua_getfield(ptr noundef %34, i32 noundef -1, ptr noundef @.str.37)
  %35 = load ptr, ptr %3, align 8, !tbaa !5
  %36 = call i32 @lua_isstring(ptr noundef %35, i32 noundef -1)
  %37 = icmp ne i32 %36, 0
  br i1 %37, label %38, label %44

38:                                               ; preds = %32
  %39 = load ptr, ptr %3, align 8, !tbaa !5
  %40 = call ptr @lua_tolstring(ptr noundef %39, i32 noundef -1, ptr noundef null)
  %41 = call ptr @sdsnew(ptr noundef %40)
  %42 = load ptr, ptr %4, align 8, !tbaa !79
  %43 = getelementptr inbounds nuw %struct.errorInfo, ptr %42, i32 0, i32 1
  store ptr %41, ptr %43, align 8, !tbaa !83
  br label %44

44:                                               ; preds = %38, %32
  %45 = load ptr, ptr %3, align 8, !tbaa !5
  call void @lua_settop(ptr noundef %45, i32 noundef -2)
  %46 = load ptr, ptr %3, align 8, !tbaa !5
  call void @lua_getfield(ptr noundef %46, i32 noundef -1, ptr noundef @.str.38)
  %47 = load ptr, ptr %3, align 8, !tbaa !5
  %48 = call i32 @lua_isstring(ptr noundef %47, i32 noundef -1)
  %49 = icmp ne i32 %48, 0
  br i1 %49, label %50, label %56

50:                                               ; preds = %44
  %51 = load ptr, ptr %3, align 8, !tbaa !5
  %52 = call ptr @lua_tolstring(ptr noundef %51, i32 noundef -1, ptr noundef null)
  %53 = call ptr @sdsnew(ptr noundef %52)
  %54 = load ptr, ptr %4, align 8, !tbaa !79
  %55 = getelementptr inbounds nuw %struct.errorInfo, ptr %54, i32 0, i32 2
  store ptr %53, ptr %55, align 8, !tbaa !84
  br label %56

56:                                               ; preds = %50, %44
  %57 = load ptr, ptr %3, align 8, !tbaa !5
  call void @lua_settop(ptr noundef %57, i32 noundef -2)
  %58 = load ptr, ptr %3, align 8, !tbaa !5
  call void @lua_getfield(ptr noundef %58, i32 noundef -1, ptr noundef @.str.39)
  %59 = load ptr, ptr %3, align 8, !tbaa !5
  %60 = call i32 @lua_type(ptr noundef %59, i32 noundef -1)
  %61 = icmp eq i32 %60, 1
  br i1 %61, label %62, label %67

62:                                               ; preds = %56
  %63 = load ptr, ptr %3, align 8, !tbaa !5
  %64 = call i32 @lua_toboolean(ptr noundef %63, i32 noundef -1)
  %65 = load ptr, ptr %4, align 8, !tbaa !79
  %66 = getelementptr inbounds nuw %struct.errorInfo, ptr %65, i32 0, i32 3
  store i32 %64, ptr %66, align 8, !tbaa !85
  br label %67

67:                                               ; preds = %62, %56
  %68 = load ptr, ptr %3, align 8, !tbaa !5
  call void @lua_settop(ptr noundef %68, i32 noundef -2)
  br label %69

69:                                               ; preds = %67, %8
  ret void
}