; Function Attrs: nounwind uwtable
define dso_local void @luaExtractErrorInformation(ptr noundef %0, ptr noundef writeonly captures(none) %1) local_unnamed_addr #0 {
  %3 = tail call i32 @lua_isstring(ptr noundef %0, i32 noundef -1) #11
  %.not = icmp eq i32 %3, 0
  br i1 %.not, label %9, label %4

4:                                                ; preds = %2
  %5 = tail call ptr @sdsempty() #11
  %6 = tail call ptr @lua_tolstring(ptr noundef %0, i32 noundef -1, ptr noundef null) #11
  %7 = tail call ptr (ptr, ptr, ...) @sdscatfmt(ptr noundef %5, ptr noundef nonnull @.str.36, ptr noundef %6) #11
  store ptr %7, ptr %1, align 8, !tbaa !72
  %8 = getelementptr inbounds nuw i8, ptr %1, i64 8
  tail call void @llvm.memset.p0.i64(ptr noundef nonnull align 8 dereferenceable(20) %8, i8 0, i64 20, i1 false)
  br label %33

9:                                                ; preds = %2
  tail call void @lua_getfield(ptr noundef %0, i32 noundef -1, ptr noundef nonnull @.str.8) #11
  %10 = tail call i32 @lua_isstring(ptr noundef %0, i32 noundef -1) #11
  %.not26 = icmp eq i32 %10, 0
  br i1 %.not26, label %14, label %11

11:                                               ; preds = %9
  %12 = tail call ptr @lua_tolstring(ptr noundef %0, i32 noundef -1, ptr noundef null) #11
  %13 = tail call ptr @sdsnew(ptr noundef %12) #11
  store ptr %13, ptr %1, align 8, !tbaa !72
  br label %14

14:                                               ; preds = %11, %9
  tail call void @lua_settop(ptr noundef %0, i32 noundef -2) #11
  tail call void @lua_getfield(ptr noundef %0, i32 noundef -1, ptr noundef nonnull @.str.37) #11
  %15 = tail call i32 @lua_isstring(ptr noundef %0, i32 noundef -1) #11
  %.not27 = icmp eq i32 %15, 0
  br i1 %.not27, label %20, label %16

16:                                               ; preds = %14
  %17 = tail call ptr @lua_tolstring(ptr noundef %0, i32 noundef -1, ptr noundef null) #11
  %18 = tail call ptr @sdsnew(ptr noundef %17) #11
  %19 = getelementptr inbounds nuw i8, ptr %1, i64 8
  store ptr %18, ptr %19, align 8, !tbaa !74
  br label %20

20:                                               ; preds = %16, %14
  tail call void @lua_settop(ptr noundef %0, i32 noundef -2) #11
  tail call void @lua_getfield(ptr noundef %0, i32 noundef -1, ptr noundef nonnull @.str.38) #11
  %21 = tail call i32 @lua_isstring(ptr noundef %0, i32 noundef -1) #11
  %.not28 = icmp eq i32 %21, 0
  br i1 %.not28, label %26, label %22

22:                                               ; preds = %20
  %23 = tail call ptr @lua_tolstring(ptr noundef %0, i32 noundef -1, ptr noundef null) #11
  %24 = tail call ptr @sdsnew(ptr noundef %23) #11
  %25 = getelementptr inbounds nuw i8, ptr %1, i64 16
  store ptr %24, ptr %25, align 8, !tbaa !75
  br label %26

26:                                               ; preds = %22, %20
  tail call void @lua_settop(ptr noundef %0, i32 noundef -2) #11
  tail call void @lua_getfield(ptr noundef %0, i32 noundef -1, ptr noundef nonnull @.str.39) #11
  %27 = tail call i32 @lua_type(ptr noundef %0, i32 noundef -1) #11
  %28 = icmp eq i32 %27, 1
  br i1 %28, label %29, label %32

29:                                               ; preds = %26
  %30 = tail call i32 @lua_toboolean(ptr noundef %0, i32 noundef -1) #11
  %31 = getelementptr inbounds nuw i8, ptr %1, i64 24
  store i32 %30, ptr %31, align 8, !tbaa !76
  br label %32

32:                                               ; preds = %29, %26
  tail call void @lua_settop(ptr noundef %0, i32 noundef -2) #11
  br label %33

33:                                               ; preds = %32, %4
  ret void
}